target datalayout = "e-m:e-p270:32:32-p271:32:32-p272:64:64-i64:64-i128:128-f80:128-n8:16:32:64-S128"
target triple = "x86_64-pc-linux-gnu"

; Function Attrs: mustprogress uwtable
define linkonce_odr hidden noundef nonnull align 8 dereferenceable(64) ptr @_ZN4LIEF4Hash7processINS_5MachO10FILE_TYPESEvEERS0_T_(ptr noundef nonnull align 8 dereferenceable(64) %0, i64 noundef %1) #3 comdat align 2 {
  %3 = alloca ptr, align 8
  %4 = alloca i64, align 8
  store ptr %0, ptr %3, align 8
  store i64 %1, ptr %4, align 8
  %5 = load ptr, ptr %3, align 8
  %6 = load i64, ptr %4, align 8
  %7 = load ptr, ptr %5, align 8
  %8 = getelementptr inbounds ptr, ptr %7, i64 166
  %9 = load ptr, ptr %8, align 8
  %10 = call noundef nonnull align 8 dereferenceable(64) ptr %9(ptr noundef nonnull align 8 dereferenceable(64) %5, i64 noundef %6)
  ret ptr %10
}

; Function Attrs: mustprogress uwtable
define linkonce_odr hidden noundef nonnull align 8 dereferenceable(64) ptr @_ZN4LIEF4Hash7processINS_5MachO9CPU_TYPESEvEERS0_T_(ptr noundef nonnull align 8 dereferenceable(64) %0, i32 noundef %1) #3 comdat align 2 {
  %3 = alloca ptr, align 8
  %4 = alloca i32, align 4
  store ptr %0, ptr %3, align 8
  store i32 %1, ptr %4, align 4
  %5 = load ptr, ptr %3, align 8
  %6 = load i32, ptr %4, align 4
  %7 = sext i32 %6 to i64
  %8 = load ptr, ptr %5, align 8
  %9 = getelementptr inbounds ptr, ptr %8, i64 166
  %10 = load ptr, ptr %9, align 8
  %11 = call noundef nonnull align 8 dereferenceable(64) ptr %10(ptr noundef nonnull align 8 dereferenceable(64) %5, i64 noundef %7)
  ret ptr %11
}

; Function Attrs: mustprogress uwtable
define linkonce_odr hidden noundef nonnull align 8 dereferenceable(64) ptr @_ZN4LIEF4Hash7processINS_5MachO11MACHO_TYPESEvEERS0_T_(ptr noundef nonnull align 8 dereferenceable(64) %0, i32 noundef %1) #3 comdat align 2 {
  %3 = alloca ptr, align 8
  %4 = alloca i32, align 4
  store ptr %0, ptr %3, align 8
  store i32 %1, ptr %4, align 4
  %5 = load ptr, ptr %3, align 8
  %6 = load i32, ptr %4, align 4
  %7 = zext i32 %6 to i64
  %8 = load ptr, ptr %5, align 8
  %9 = getelementptr inbounds ptr, ptr %8, i64 166
  %10 = load ptr, ptr %9, align 8
  %11 = call noundef nonnull align 8 dereferenceable(64) ptr %10(ptr noundef nonnull align 8 dereferenceable(64) %5, i64 noundef %7)
  ret ptr %11
}

; Function Attrs: mustprogress uwtable
define void @_ZN4LIEF5MachO4Hash5visitERKNS0_6HeaderE(ptr noundef nonnull align 8 dereferenceable(64) %0, ptr noundef nonnull align 8 dereferenceable(48) %1) unnamed_addr #3 align 2 {
  %3 = alloca ptr, align 8
  %4 = alloca ptr, align 8
  store ptr %0, ptr %3, align 8
  store ptr %1, ptr %4, align 8
  %5 = load ptr, ptr %3, align 8
  %6 = load ptr, ptr %4, align 8
  %7 = call noundef i32 @_ZNK4LIEF5MachO6Header5magicEv(ptr noundef nonnull align 8 dereferenceable(48) %6)
  %8 = call noundef nonnull align 8 dereferenceable(64) ptr @_ZN4LIEF4Hash7processINS_5MachO11MACHO_TYPESEvEERS0_T_(ptr noundef nonnull align 8 dereferenceable(64) %5, i32 noundef %7)
  %9 = load ptr, ptr %4, align 8
  %10 = call noundef i32 @_ZNK4LIEF5MachO6Header8cpu_typeEv(ptr noundef nonnull align 8 dereferenceable(48) %9)
  %11 = call noundef nonnull align 8 dereferenceable(64) ptr @_ZN4LIEF4Hash7processINS_5MachO9CPU_TYPESEvEERS0_T_(ptr noundef nonnull align 8 dereferenceable(64) %5, i32 noundef %10)
  %12 = load ptr, ptr %4, align 8
  %13 = call noundef i32 @_ZNK4LIEF5MachO6Header11cpu_subtypeEv(ptr noundef nonnull align 8 dereferenceable(48) %12)
  %14 = zext i32 %13 to i64
  %15 = load ptr, ptr %5, align 8
  %16 = getelementptr inbounds ptr, ptr %15, i64 166
  %17 = load ptr, ptr %16, align 8
  %18 = call noundef nonnull align 8 dereferenceable(64) ptr %17(ptr noundef nonnull align 8 dereferenceable(64) %5, i64 noundef %14)
  %19 = load ptr, ptr %4, align 8
  %20 = call noundef i64 @_ZNK4LIEF5MachO6Header9file_typeEv(ptr noundef nonnull align 8 dereferenceable(48) %19)
  %21 = call noundef nonnull align 8 dereferenceable(64) ptr @_ZN4LIEF4Hash7processINS_5MachO10FILE_TYPESEvEERS0_T_(ptr noundef nonnull align 8 dereferenceable(64) %5, i64 noundef %20)
  %22 = load ptr, ptr %4, align 8
  %23 = call noundef i32 @_ZNK4LIEF5MachO6Header7nb_cmdsEv(ptr noundef nonnull align 8 dereferenceable(48) %22)
  %24 = zext i32 %23 to i64
  %25 = load ptr, ptr %5, align 8
  %26 = getelementptr inbounds ptr, ptr %25, i64 166
  %27 = load ptr, ptr %26, align 8
  %28 = call noundef nonnull align 8 dereferenceable(64) ptr %27(ptr noundef nonnull align 8 dereferenceable(64) %5, i64 noundef %24)
  %29 = load ptr, ptr %4, align 8
  %30 = call noundef i32 @_ZNK4LIEF5MachO6Header11sizeof_cmdsEv(ptr noundef nonnull align 8 dereferenceable(48) %29)
  %31 = zext i32 %30 to i64
  %32 = load ptr, ptr %5, align 8
  %33 = getelementptr inbounds ptr, ptr %32, i64 166
  %34 = load ptr, ptr %33, align 8
  %35 = call noundef nonnull align 8 dereferenceable(64) ptr %34(ptr noundef nonnull align 8 dereferenceable(64) %5, i64 noundef %31)
  %36 = load ptr, ptr %4, align 8
  %37 = call noundef i32 @_ZNK4LIEF5MachO6Header5flagsEv(ptr noundef nonnull align 8 dereferenceable(48) %36)
  %38 = zext i32 %37 to i64
  %39 = load ptr, ptr %5, align 8
  %40 = getelementptr inbounds ptr, ptr %39, i64 166
  %41 = load ptr, ptr %40, align 8
  %42 = call noundef nonnull align 8 dereferenceable(64) ptr %41(ptr noundef nonnull align 8 dereferenceable(64) %5, i64 noundef %38)
  %43 = load ptr, ptr %4, align 8
  %44 = call noundef i32 @_ZNK4LIEF5MachO6Header8reservedEv(ptr noundef nonnull align 8 dereferenceable(48) %43)
  %45 = zext i32 %44 to i64
  %46 = load ptr, ptr %5, align 8
  %47 = getelementptr inbounds ptr, ptr %46, i64 166
  %48 = load ptr, ptr %47, align 8
  %49 = call noundef nonnull align 8 dereferenceable(64) ptr %48(ptr noundef nonnull align 8 dereferenceable(64) %5, i64 noundef %45)
  ret void
}