; Function Attrs: mustprogress uwtable
define void @_ZN4LIEF5MachO4Hash5visitERKNS0_6HeaderE(ptr noundef nonnull align 8 dereferenceable(64) %0, ptr noundef nonnull align 8 dereferenceable(48) %1) unnamed_addr #3 align 2 {
  %3 = tail call noundef i32 @_ZNK4LIEF5MachO6Header5magicEv(ptr noundef nonnull align 8 dereferenceable(48) %1)
  %4 = zext i32 %3 to i64
  %5 = load ptr, ptr %0, align 8
  %6 = getelementptr inbounds i8, ptr %5, i64 1328
  %7 = load ptr, ptr %6, align 8
  %8 = tail call noundef nonnull align 8 dereferenceable(64) ptr %7(ptr noundef nonnull align 8 dereferenceable(64) %0, i64 noundef %4)
  %9 = tail call noundef i32 @_ZNK4LIEF5MachO6Header8cpu_typeEv(ptr noundef nonnull align 8 dereferenceable(48) %1)
  %10 = sext i32 %9 to i64
  %11 = load ptr, ptr %0, align 8
  %12 = getelementptr inbounds i8, ptr %11, i64 1328
  %13 = load ptr, ptr %12, align 8
  %14 = tail call noundef nonnull align 8 dereferenceable(64) ptr %13(ptr noundef nonnull align 8 dereferenceable(64) %0, i64 noundef %10)
  %15 = tail call noundef i32 @_ZNK4LIEF5MachO6Header11cpu_subtypeEv(ptr noundef nonnull align 8 dereferenceable(48) %1)
  %16 = zext i32 %15 to i64
  %17 = load ptr, ptr %0, align 8
  %18 = getelementptr inbounds i8, ptr %17, i64 1328
  %19 = load ptr, ptr %18, align 8
  %20 = tail call noundef nonnull align 8 dereferenceable(64) ptr %19(ptr noundef nonnull align 8 dereferenceable(64) %0, i64 noundef %16)
  %21 = tail call noundef i64 @_ZNK4LIEF5MachO6Header9file_typeEv(ptr noundef nonnull align 8 dereferenceable(48) %1)
  %22 = load ptr, ptr %0, align 8
  %23 = getelementptr inbounds i8, ptr %22, i64 1328
  %24 = load ptr, ptr %23, align 8
  %25 = tail call noundef nonnull align 8 dereferenceable(64) ptr %24(ptr noundef nonnull align 8 dereferenceable(64) %0, i64 noundef %21)
  %26 = tail call noundef i32 @_ZNK4LIEF5MachO6Header7nb_cmdsEv(ptr noundef nonnull align 8 dereferenceable(48) %1)
  %27 = zext i32 %26 to i64
  %28 = load ptr, ptr %0, align 8
  %29 = getelementptr inbounds i8, ptr %28, i64 1328
  %30 = load ptr, ptr %29, align 8
  %31 = tail call noundef nonnull align 8 dereferenceable(64) ptr %30(ptr noundef nonnull align 8 dereferenceable(64) %0, i64 noundef %27)
  %32 = tail call noundef i32 @_ZNK4LIEF5MachO6Header11sizeof_cmdsEv(ptr noundef nonnull align 8 dereferenceable(48) %1)
  %33 = zext i32 %32 to i64
  %34 = load ptr, ptr %0, align 8
  %35 = getelementptr inbounds i8, ptr %34, i64 1328
  %36 = load ptr, ptr %35, align 8
  %37 = tail call noundef nonnull align 8 dereferenceable(64) ptr %36(ptr noundef nonnull align 8 dereferenceable(64) %0, i64 noundef %33)
  %38 = tail call noundef i32 @_ZNK4LIEF5MachO6Header5flagsEv(ptr noundef nonnull align 8 dereferenceable(48) %1)
  %39 = zext i32 %38 to i64
  %40 = load ptr, ptr %0, align 8
  %41 = getelementptr inbounds i8, ptr %40, i64 1328
  %42 = load ptr, ptr %41, align 8
  %43 = tail call noundef nonnull align 8 dereferenceable(64) ptr %42(ptr noundef nonnull align 8 dereferenceable(64) %0, i64 noundef %39)
  %44 = tail call noundef i32 @_ZNK4LIEF5MachO6Header8reservedEv(ptr noundef nonnull align 8 dereferenceable(48) %1)
  %45 = zext i32 %44 to i64
  %46 = load ptr, ptr %0, align 8
  %47 = getelementptr inbounds i8, ptr %46, i64 1328
  %48 = load ptr, ptr %47, align 8
  %49 = tail call noundef nonnull align 8 dereferenceable(64) ptr %48(ptr noundef nonnull align 8 dereferenceable(64) %0, i64 noundef %45)
  ret void
}